c__builtin__
set
p0
((lp1
S'b-(d/(a-c))'
p2
aS'd/((b*c)-a)'
p3
aS'(b-c)-(d/a)'
p4
aS'((a-c)*d)-b'
p5
aS'(b/(a+c))-d'
p6
aS'((a/c)*d)+b'
p7
aS'(a+d)-(b/c)'
p8
aS'(b-c)*(a-d)'
p9
aS'((a/b)+d)*c'
p10
aS'd-(a/(b-c))'
p11
aS'(a-(c*d))*b'
p12
aS'((a+d)*b)/c'
p13
aS'((b-c)+d)*a'
p14
aS'b-((a*c)*d)'
p15
aS'((b/a)-c)+d'
p16
aS'(c*d)+(a/b)'
p17
aS'(c/a)-(b/d)'
p18
aS'b/((c/a)+d)'
p19
aS'(d/b)+(c/a)'
p20
aS'(b/d)-(a/c)'
p21
aS'(a-b)/(d-c)'
p22
aS'b/((c*d)-a)'
p23
aS'b/((d/c)+a)'
p24
aS'((a+b)-c)/d'
p25
aS'(a-c)-(b*d)'
p26
aS'((b*d)+c)*a'
p27
aS'((a+d)/b)*c'
p28
aS'(b/a)/(d-c)'
p29
aS'a/((d/b)-c)'
p30
aS'd/((b-a)*c)'
p31
aS'((b/d)-c)/a'
p32
aS'((a-d)*c)-b'
p33
aS'(b-a)/(c+d)'
p34
aS'((a/c)+b)-d'
p35
aS'((a-c)/b)*d'
p36
aS'(d/(a+c))-b'
p37
aS'd/(c-(a+b))'
p38
aS'((d/b)-c)/a'
p39
aS'((a*c)+b)/d'
p40
aS'((a-b)/c)*d'
p41
aS'(c-(d/b))/a'
p42
aS'a/(c-(d/b))'
p43
aS'((a+d)*c)-b'
p44
aS'a-((b+c)/d)'
p45
aS'd/((a-b)/c)'
p46
aS'c/((b/d)-a)'
p47
aS'(c+d)*(a*b)'
p48
aS'(d/a)+(b+c)'
p49
aS'c-((a-d)/b)'
p50
aS'(b*d)-(c/a)'
p51
aS'(c/a)+(b-d)'
p52
aS'((c*d)-a)*b'
p53
aS'(c-(a/b))*d'
p54
aS'((c/b)-d)/a'
p55
aS'd/((a/b)*c)'
p56
aS'(b*d)-(a-c)'
p57
aS'((a*b)*c)-d'
p58
aS'(a-b)-(c/d)'
p59
aS'(c/(d-b))-a'
p60
aS'(b+d)*(a*c)'
p61
aS'(d/b)-(a-c)'
p62
aS'(d/a)-(b/c)'
p63
aS'((a*c)*d)-b'
p64
aS'((a+b)-d)*c'
p65
aS'd-((a+b)-c)'
p66
aS'((c/d)+a)/b'
p67
aS'(b/a)-(d/c)'
p68
aS'((b*d)-a)*c'
p69
aS'(c+d)/(a-b)'
p70
aS'(d-(c/a))*b'
p71
aS'((b+c)*a)+d'
p72
aS'(c-d)/(a*b)'
p73
aS'a/((d/c)+b)'
p74
aS'c/(b-(a*d))'
p75
aS'(a+c)/(d-b)'
p76
aS'((b*c)-a)*d'
p77
aS'(c-(b/d))/a'
p78
aS'(a-(b*d))*c'
p79
aS'(a-(b*c))*d'
p80
aS'(b-(c/d))*a'
p81
aS'(b-c)/(a/d)'
p82
aS'((b*c)/d)+a'
p83
aS'(d/(a-b))-c'
p84
aS'(d-(b/a))*c'
p85
aS'a-(d/(b/c))'
p86
aS'd/((a*b)-c)'
p87
aS'((b+c)/a)-d'
p88
aS'b-((a-d)*c)'
p89
aS'(b-(c*d))*a'
p90
aS'(d/c)-(b/a)'
p91
aS'(b+d)-(c/a)'
p92
aS'(d-(c/b))/a'
p93
aS'(b/(d-c))-a'
p94
aS'(c/(a*d))-b'
p95
aS'((b-a)/c)*d'
p96
aS'(d-c)/(a-b)'
p97
aS'(d-a)/(b*c)'
p98
aS'd/((b/c)+a)'
p99
aS'((a/d)-b)/c'
p100
aS'd/((a-b)*c)'
p101
aS'((a-b)*c)-d'
p102
aS'(c*d)-(a-b)'
p103
aS'(b/c)/(d-a)'
p104
aS'((c*d)+a)*b'
p105
aS'a/((b-c)-d)'
p106
aS'(d/(b/c))-a'
p107
aS'd-((a+c)/b)'
p108
aS'(c-(a*b))/d'
p109
aS'(b/d)+(a-c)'
p110
aS'(b-(d/c))/a'
p111
aS'b-(c/(a-d))'
p112
aS'd/((a/c)+b)'
p113
aS'((a*c)-b)+d'
p114
aS'(d/(b+c))-a'
p115
aS'((c*d)-b)/a'
p116
aS'b-(d/(a*c))'
p117
aS'((a+b)/d)-c'
p118
aS'(c-(a+b))*d'
p119
aS'((d/a)-b)*c'
p120
aS'((d/b)+a)*c'
p121
aS'c-((b*d)+a)'
p122
aS'(c/d)-(a-b)'
p123
aS'((a/c)-b)+d'
p124
aS'c-((b+d)/a)'
p125
aS'(b+c)*(a/d)'
p126
aS'd/(a-(b/c))'
p127
aS'((d/c)-a)*b'
p128
aS'b-((a*d)+c)'
p129
aS'(b-a)-(c*d)'
p130
aS'b/(d-(a-c))'
p131
aS'((a*b)+c)-d'
p132
aS'a-((c+d)*b)'
p133
aS'(d-(b/c))/a'
p134
aS'((a+d)*c)+b'
p135
aS'(d/(a-c))-b'
p136
aS'(c-b)*(a-d)'
p137
aS'd-(c/(a/b))'
p138
aS'((b-c)/d)+a'
p139
aS'((d-b)*c)-a'
p140
aS'(d/(b*c))-a'
p141
aS'a/(d-(b-c))'
p142
aS'd/((a+b)-c)'
p143
aS'((c-d)*b)+a'
p144
aS'(c+d)/(b-a)'
p145
aS'(b-d)*(a-c)'
p146
aS'(a-(c/b))*d'
p147
aS'((b-c)-d)*a'
p148
aS'(d/(c-b))-a'
p149
aS'(b-(a/d))*c'
p150
aS'((c/d)+a)*b'
p151
aS'((a+b)/c)+d'
p152
aS'(d-b)/(a*c)'
p153
aS'((a/b)/c)-d'
p154
aS'((a+c)*b)/d'
p155
aS'(c/(b*d))+a'
p156
aS'((a*c)+b)+d'
p157
aS'((a-d)*b)-c'
p158
aS'b-(d/(a+c))'
p159
aS'((a/c)-d)/b'
p160
aS'(b-d)*(a+c)'
p161
aS'(c-d)*(a/b)'
p162
aS'(d/(a/b))+c'
p163
aS'(d-c)*(a+b)'
p164
aS'((a-c)/b)/d'
p165
aS'((a/b)-c)*d'
p166
aS'(b-c)*(a+d)'
p167
aS'(c/b)+(a-d)'
p168
aS'((b/a)-c)/d'
p169
aS'((c/b)-d)*a'
p170
aS'c/(a-(d/b))'
p171
aS'c/((a/d)-b)'
p172
aS'(b/(a*d))-c'
p173
aS'(c+d)*(a/b)'
p174
aS'(c/d)+(a+b)'
p175
aS'(b-(a+c))*d'
p176
aS'((a*d)+c)*b'
p177
aS'c-((a/b)*d)'
p178
aS'(d-a)*(b*c)'
p179
aS'c/((b-a)*d)'
p180
aS'(d/(a-c))+b'
p181
aS'(c-(a/b))/d'
p182
aS'(d-c)*(a/b)'
p183
aS'(c/b)-(a+d)'
p184
aS'(b+c)/(a*d)'
p185
aS'c-((a+b)*d)'
p186
aS'(d/(a*b))-c'
p187
aS'd-((a*c)-b)'
p188
aS'((a-d)/b)*c'
p189
aS'((a/d)+c)/b'
p190
aS'((a*b)/c)+d'
p191
aS'(b/(c+d))-a'
p192
aS'(b/(c-d))-a'
p193
aS'((b/c)/d)+a'
p194
aS'd-((a+c)*b)'
p195
aS'(a-d)/(c-b)'
p196
aS'(a*d)/(b-c)'
p197
aS'(a-d)-(b/c)'
p198
aS'(d/(b/c))+a'
p199
aS'((b-c)*d)+a'
p200
aS'(c/d)-(b/a)'
p201
aS'((d-c)*a)-b'
p202
aS'a/((b/c)-d)'
p203
aS'((a-b)-c)*d'
p204
aS'c-(a/(b-d))'
p205
aS'((b/a)-d)*c'
p206
aS'((a+d)/b)-c'
p207
aS'd/((a/b)-c)'
p208
aS'(a/c)-(b*d)'
p209
aS'(c/(a+b))-d'
p210
aS'((c+d)*b)+a'
p211
aS'(a*b)-(c/d)'
p212
aS'c/(b-(a/d))'
p213
aS'c-((a*d)-b)'
p214
aS'(b/(a-d))+c'
p215
aS'c/(a-(b*d))'
p216
aS'a/((b*d)-c)'
p217
aS'(d/b)+(a+c)'
p218
aS'((b/c)-a)/d'
p219
aS'((c+d)*a)-b'
p220
aS'd/((c/a)-b)'
p221
aS'((a/c)+b)+d'
p222
aS'b/((c*d)+a)'
p223
aS'((b*d)-c)*a'
p224
aS'b-((a+c)+d)'
p225
aS'c/((a-d)*b)'
p226
aS'((a*c)-b)/d'
p227
aS'd-((a*b)+c)'
p228
aS'((d/a)-c)*b'
p229
aS'(a-(c/d))/b'
p230
aS'c/((a+b)-d)'
p231
aS'(c-(a*b))*d'
p232
aS'(b*d)/(c-a)'
p233
aS'((a-b)/d)+c'
p234
aS'(c/(a-d))+b'
p235
aS'c-((b-d)/a)'
p236
aS'(b/(a+d))-c'
p237
aS'a/((b/d)-c)'
p238
aS'((c-a)*b)-d'
p239
aS'((b/a)-d)/c'
p240
aS'(c*d)+(a+b)'
p241
aS'((c+d)/b)+a'
p242
aS'((c*d)+b)*a'
p243
aS'(b-(a*c))/d'
p244
aS'((c-b)/a)-d'
p245
aS'd/((c/a)+b)'
p246
aS'(a/d)/(c-b)'
p247
aS'((b+c)+d)/a'
p248
aS'(c-(a/d))/b'
p249
aS'((c/d)+b)/a'
p250
aS'(d/(a/c))+b'
p251
aS'((a*b)-c)/d'
p252
aS'((a-c)*b)-d'
p253
aS'(a-c)/(b-d)'
p254
aS'(d-b)*(a+c)'
p255
aS'((b-c)/a)+d'
p256
aS'a-((b-c)*d)'
p257
aS'b/((d/a)+c)'
p258
aS'((a+b)*c)+d'
p259
aS'c/((a-b)-d)'
p260
aS'((b/a)-c)-d'
p261
aS'(d-b)/(a+c)'
p262
aS'((b/c)-d)/a'
p263
aS'a-((b*c)*d)'
p264
aS'((b*c)+a)/d'
p265
aS'(d-(a-c))*b'
p266
aS'(a+b)-(c/d)'
p267
aS'(a*d)/(b+c)'
p268
aS'((a/b)+c)+d'
p269
aS'((d-b)*a)-c'
p270
aS'(a+b)/(c+d)'
p271
aS'((b*d)-a)/c'
p272
aS'((c/b)-a)/d'
p273
aS'(c-b)*(a+d)'
p274
aS'(a+c)-(b/d)'
p275
aS'b/((a/c)+d)'
p276
aS'c-(d/(a*b))'
p277
aS'((a-c)/b)+d'
p278
aS'((b/c)+d)*a'
p279
aS'((a+b)/c)/d'
p280
aS'((a-b)/c)+d'
p281
aS'((a+c)*b)+d'
p282
aS'd-((a/c)+b)'
p283
aS'(a/c)/(b+d)'
p284
aS'(c/a)-(b*d)'
p285
aS'((a+c)+d)*b'
p286
aS'(a-(c*d))/b'
p287
aS'(a*b)/(c-d)'
p288
aS'(d/(a+b))+c'
p289
aS'(a+d)/(c-b)'
p290
aS'((d/c)-a)/b'
p291
aS'(d-(a*c))/b'
p292
aS'((a-b)-c)/d'
p293
aS'd/(a-(c/b))'
p294
aS'd-(c/(a-b))'
p295
aS'(a/b)/(c-d)'
p296
aS'(c/(a+d))-b'
p297
aS'c/((b-d)*a)'
p298
aS'd-((a-b)/c)'
p299
aS'c/((b/a)+d)'
p300
aS'(b-(a+d))/c'
p301
aS'a-((b+d)/c)'
p302
aS'(d-(c/b))*a'
p303
aS'(a+b)-(d/c)'
p304
aS'((a-b)-d)/c'
p305
aS'd-((a*b)*c)'
p306
aS'(b/d)-(a*c)'
p307
aS'b-(c/(a+d))'
p308
aS'((b/c)*d)+a'
p309
aS'c/((a*d)-b)'
p310
aS'(a/(c-d))+b'
p311
aS'((d/a)+c)/b'
p312
aS'c/((a*b)+d)'
p313
aS'b/(a-(d/c))'
p314
aS'((b*c)-d)/a'
p315
aS'd/((c/b)-a)'
p316
aS'(a/(b+c))-d'
p317
aS'((c/a)+b)*d'
p318
aS'(b/(a*c))-d'
p319
aS'(c-(a+d))*b'
p320
aS'c/((d/b)-a)'
p321
aS'(b/(a-c))+d'
p322
aS'(c-(b/a))/d'
p323
aS'(b-d)*(a/c)'
p324
aS'((b+c)-d)/a'
p325
aS'((c-a)*d)-b'
p326
aS'((c*d)-b)*a'
p327
aS'(a-d)-(b*c)'
p328
aS'd/((a-c)/b)'
p329
aS'(c/b)-(a-d)'
p330
aS'((b-a)/c)/d'
p331
aS'(d-a)/(b/c)'
p332
aS'((b+d)/a)+c'
p333
aS'a/((c*d)-b)'
p334
aS'(b*c)-(a*d)'
p335
aS'((a-d)*b)/c'
p336
aS'(a+b)/(c-d)'
p337
aS'(c-(d/a))/b'
p338
aS'(d/(b-c))-a'
p339
aS'((a-d)*c)+b'
p340
aS'(b*d)-(a/c)'
p341
aS'a/(b-(c*d))'
p342
aS'd/((b-a)/c)'
p343
aS'd/((a-b)+c)'
p344
aS'((a+b)+c)*d'
p345
aS'((a+b)-c)-d'
p346
aS'((b-d)/c)+a'
p347
aS'a/((d/b)+c)'
p348
aS'((c/a)+d)*b'
p349
aS'((a*d)+b)*c'
p350
aS'(a/(d-c))-b'
p351
aS'(a-(b/c))/d'
p352
aS'((b*c)-a)/d'
p353
aS'(a/c)/(b-d)'
p354
aS'(c/(a*b))-d'
p355
aS'(a-b)-(c*d)'
p356
aS'(b/d)-(a+c)'
p357
aS'(b*c)-(a+d)'
p358
aS'((b+d)*c)+a'
p359
aS'a/((c*d)+b)'
p360
aS'(d-(a*b))*c'
p361
aS'(c+d)/(a/b)'
p362
aS'((a*c)-b)*d'
p363
aS'(d-c)/(a*b)'
p364
aS'(d/c)+(a*b)'
p365
aS'((c-d)/b)+a'
p366
aS'b/(a-(c/d))'
p367
aS'(b/(c+d))+a'
p368
aS'c-(d/(a/b))'
p369
aS'a/((c/b)+d)'
p370
aS'b-((a*c)/d)'
p371
aS'(b/(c-d))+a'
p372
aS'c-((a-b)/d)'
p373
aS'((d/c)-b)*a'
p374
aS'c/(b-(a+d))'
p375
aS'(a/(b+d))-c'
p376
aS'((a*b)-c)+d'
p377
aS'(d-a)*(b/c)'
p378
aS'd/((b/a)+c)'
p379
aS'((a+c)/d)+b'
p380
aS'(c-(a-b))*d'
p381
aS'(d/b)-(a+c)'
p382
aS'((a-c)*d)+b'
p383
aS'(a*b)/(d-c)'
p384
aS'((a*d)-c)/b'
p385
aS'((b/d)+c)/a'
p386
aS'b-(a/(c+d))'
p387
aS'(a*c)/(d-b)'
p388
aS'(a+d)/(b+c)'
p389
aS'((b-d)/a)+c'
p390
aS'(b+c)*(a*d)'
p391
aS'(c-d)*(a+b)'
p392
aS'd-(b/(a+c))'
p393
aS'(c/(a-b))+d'
p394
aS'(a-(d/c))/b'
p395
aS'(d-a)*(b+c)'
p396
aS'(a+c)-(d/b)'
p397
aS'((a+b)+c)/d'
p398
aS'(a/(b+d))+c'
p399
aS'b/((a/d)+c)'
p400
aS'((b+d)*c)-a'
p401
aS'(a-(d/b))/c'
p402
aS'((d-b)/c)-a'
p403
aS'((b/d)+c)*a'
p404
aS'a-((c-d)/b)'
p405
aS'((b*d)+c)/a'
p406
aS'((b/d)-c)*a'
p407
aS'((a-d)*b)*c'
p408
aS'((a/b)+c)/d'
p409
aS'c-((a+d)/b)'
p410
aS'((d-c)*b)-a'
p411
aS'((a/d)-b)*c'
p412
aS'(a-(d/b))*c'
p413
aS'((b+c)/d)+a'
p414
aS'(c-b)/(a*d)'
p415
aS'a/((b+c)-d)'
p416
aS'(d/(a+c))+b'
p417
aS'((a*c)*d)+b'
p418
aS'((a+b)*c)/d'
p419
aS'((a/b)-c)/d'
p420
aS'(c/a)+(b/d)'
p421
aS'd-(b/(a*c))'
p422
aS'((a*b)*c)*d'
p423
aS'((c+d)*a)+b'
p424
aS'b-((a/c)/d)'
p425
aS'(c/b)-(d/a)'
p426
aS'(a/c)-(b/d)'
p427
aS'((d/a)+c)*b'
p428
aS'd/((b*c)+a)'
p429
aS'(d/c)+(a-b)'
p430
aS'(a/(b-c))+d'
p431
aS'((a/b)/c)/d'
p432
aS'(c-(a+d))/b'
p433
aS'(a*b)/(c+d)'
p434
aS'(d/a)+(b-c)'
p435
aS'(d/b)+(a*c)'
p436
aS'(d-(a/b))/c'
p437
aS'((c+d)*b)-a'
p438
aS'((a*b)/c)*d'
p439
aS'd/((a/c)-b)'
p440
aS'((c-a)/b)-d'
p441
aS'd-((a/b)-c)'
p442
aS'b-((a+d)/c)'
p443
aS'((a+c)-d)*b'
p444
aS'a-((b*c)/d)'
p445
aS'(d-c)*(a-b)'
p446
aS'c-((b+d)*a)'
p447
aS'((a-b)-c)+d'
p448
aS'((a+b)+d)/c'
p449
aS'a-(d/(b*c))'
p450
aS'(d/a)+(c/b)'
p451
aS'c-(d/(a-b))'
p452
aS'(a*b)-(d/c)'
p453
aS'c/((a*d)+b)'
p454
aS'((d/a)-c)/b'
p455
aS'c/((a*b)-d)'
p456
aS'd/((a-c)*b)'
p457
aS'((a/b)*c)/d'
p458
aS'(d/(b+c))+a'
p459
aS'((a+c)*d)+b'
p460
aS'((c/d)+b)*a'
p461
aS'(d/(a-b))+c'
p462
aS'((c/d)-a)*b'
p463
aS'(b-d)/(a-c)'
p464
aS'(d/(c-a))-b'
p465
aS'(d-b)*(a*c)'
p466
aS'(c-(d/a))*b'
p467
aS'b/((c/a)-d)'
p468
aS'(c-b)*(a*d)'
p469
aS'(b/c)+(a+d)'
p470
aS'c-((a-d)*b)'
p471
aS'(c+d)*(a+b)'
p472
aS'(a/(c+d))+b'
p473
aS'(b/c)-(d/a)'
p474
aS'((a/d)-c)*b'
p475
aS'd/((a*c)+b)'
p476
aS'(b*d)-(a*c)'
p477
aS'((b*d)-c)/a'
p478
aS'(d-(c/a))/b'
p479
aS'((a*c)-d)/b'
p480
aS'(c-a)*(b/d)'
p481
aS'((a*b)-d)*c'
p482
aS'(c-a)*(b*d)'
p483
aS'(c*d)+(b/a)'
p484
aS'd/((a*b)*c)'
p485
aS'((a-b)*c)+d'
p486
aS'b/((a/c)-d)'
p487
aS'(b-(a*c))*d'
p488
aS'b/((a*c)-d)'
p489
aS'c-((a+b)+d)'
p490
aS'(d/(b-a))-c'
p491
aS'(a/(c-b))-d'
p492
aS'(d/(a*c))-b'
p493
aS'(c/a)-(d/b)'
p494
aS'(a+c)/(b+d)'
p495
aS'((a/b)/d)-c'
p496
aS'(b+d)*(a+c)'
p497
aS'(a/d)-(b/c)'
p498
aS'(c/(a/b))-d'
p499
aS'(b*c)-(a-d)'
p500
aS'b-((a/c)+d)'
p501
aS'(b-(c/a))/d'
p502
aS'(a*d)-(b*c)'
p503
aS'((b-c)+d)/a'
p504
aS'(a/b)-(c*d)'
p505
aS'c/(d-(a-b))'
p506
aS'c/((a+b)*d)'
p507
aS'((a/b)-d)/c'
p508
aS'b/(a-(c*d))'
p509
aS'c/(a-(b/d))'
p510
aS'(d/c)-(a/b)'
p511
aS'((a/c)+d)*b'
p512
aS'(b+d)/(a/c)'
p513
aS'c-((b-d)*a)'
p514
aS'(d/(a/b))-c'
p515
aS'(b/c)-(a*d)'
p516
aS'(a/(b-c))-d'
p517
aS'((d-a)*b)-c'
p518
aS'(a/c)-(d/b)'
p519
aS'((a+b)*c)*d'
p520
aS'c/((a/b)*d)'
p521
aS'b-((a+d)*c)'
p522
aS'(c-(a*d))*b'
p523
aS'a-((b/c)*d)'
p524
aS'(d/c)-(a*b)'
p525
aS'(c-(a+b))/d'
p526
aS'(b/d)-(c/a)'
p527
aS'(c-d)*(a*b)'
p528
aS'(c/b)-(a*d)'
p529
aS'c-((a+b)/d)'
p530
aS'((b-c)/d)-a'
p531
aS'((a*c)/d)-b'
p532
aS'((d-c)/a)-b'
p533
aS'(b*d)+(a*c)'
p534
aS'd-((a/b)*c)'
p535
aS'd/((a/b)+c)'
p536
aS'((a-c)-d)*b'
p537
aS'((b+d)*a)-c'
p538
aS'(c*d)+(a-b)'
p539
aS'(c-b)/(a-d)'
p540
aS'b-((c-d)*a)'
p541
aS'(d/(a/c))-b'
p542
aS'((a-d)/b)-c'
p543
aS'a/(b-(c/d))'
p544
aS'b/((a/d)-c)'
p545
aS'((b-d)*a)+c'
p546
aS'c-((a*b)+d)'
p547
aS'c/((a-d)/b)'
p548
aS'(a-c)/(d-b)'
p549
aS'(c/b)+(a/d)'
p550
aS'(b-(a/c))*d'
p551
aS'd-((a-c)/b)'
p552
aS'((a*c)+b)-d'
p553
aS'(b/d)/(c-a)'
p554
aS'((a/b)/c)*d'
p555
aS'((a/c)+b)*d'
p556
aS'(d-c)*(a*b)'
p557
aS'((a-b)-d)*c'
p558
aS'((a*c)+b)*d'
p559
aS'(b+d)*(a/c)'
p560
aS'((c-a)/d)-b'
p561
aS'((a+d)/b)/c'
p562
aS'(d-(a*c))*b'
p563
aS'(b/(a-d))-c'
p564
aS'a/((c/d)-b)'
p565
aS'((b-d)/c)-a'
p566
aS'(c/(b-d))+a'
p567
aS'(d/a)+(b*c)'
p568
aS'((a/b)-c)+d'
p569
aS'((c-d)/a)-b'
p570
aS'((a/b)*d)-c'
p571
aS'(d-b)/(a-c)'
p572
aS'(a*c)-(b*d)'
p573
aS'(d-b)*(a/c)'
p574
aS'((a*b)/d)+c'
p575
aS'(c-(b*d))/a'
p576
aS'((a+b)*d)+c'
p577
aS'c/((b*d)+a)'
p578
aS'(d-a)/(b+c)'
p579
aS'((c/a)-b)*d'
p580
aS'(b+c)-(d/a)'
p581
aS'(c-(a*d))/b'
p582
aS'(c/b)/(d-a)'
p583
aS'c-((a/b)+d)'
p584
aS'((b-d)*c)+a'
p585
aS'b/((a+c)-d)'
p586
aS'(a/(c+d))-b'
p587
aS'((a-c)+d)*b'
p588
aS'(b-(a+c))/d'
p589
aS'((d-a)/c)-b'
p590
aS'(b-(d/c))*a'
p591
aS'((a+d)*b)+c'
p592
aS'(c/d)+(b/a)'
p593
aS'(b-(a*d))/c'
p594
aS'((b/a)+c)/d'
p595
aS'(a-(b*d))/c'
p596
aS'((a/d)-c)/b'
p597
aS'a/(d-(b+c))'
p598
aS'b-((a/c)*d)'
p599
aS'((a/d)+b)/c'
p600
aS'b-((c-d)/a)'
p601
aS'(a-(b/d))/c'
p602
aS'((a-d)/c)+b'
p603
aS'((a+b)+c)+d'
p604
aS'b/(c-(a*d))'
p605
aS'((b/a)+d)/c'
p606
aS'b-(d/(a/c))'
p607
aS'd-((a-b)*c)'
p608
aS'(b-d)/(a*c)'
p609
aS'(a/b)/(c+d)'
p610
aS'((b+c)*d)-a'
p611
aS'((d-c)/b)-a'
p612
aS'((a*d)+b)/c'
p613
aS'c-((b/d)+a)'
p614
aS'((a-b)*c)/d'
p615
aS'((a-b)*d)+c'
p616
aS'((a*c)-d)*b'
p617
aS'(c-a)/(b*d)'
p618
aS'(d/b)-(a/c)'
p619
aS'a/((b*c)+d)'
p620
aS'b/((a*c)+d)'
p621
aS'((c-b)*d)-a'
p622
aS'(a*b)-(c*d)'
p623
aS'((a/b)*c)+d'
p624
aS'((a+c)/b)/d'
p625
aS'(d/a)-(b-c)'
p626
aS'(d-b)/(a/c)'
p627
aS'd/(c-(a/b))'
p628
aS'c/((a*b)*d)'
p629
aS'd-((c/b)+a)'
p630
aS'((d/b)+c)*a'
p631
aS'((a-b)+c)*d'
p632
aS'a/((b*d)+c)'
p633
aS'(c-b)-(d/a)'
p634
aS'(a-b)-(d/c)'
p635
aS'((a/c)-b)-d'
p636
aS'(b/a)-(c*d)'
p637
aS'(a+c)-(b*d)'
p638
aS'((b-a)*c)/d'
p639
aS'd/((a+b)*c)'
p640
aS'((b/d)+a)/c'
p641
aS'(a-(b*c))/d'
p642
aS'((b-d)/a)-c'
p643
aS'((a+b)/c)-d'
p644
aS'((a*b)+c)/d'
p645
aS'c/((d/a)-b)'
p646
aS'd-((a/c)-b)'
p647
aS'(c+d)/(a*b)'
p648
aS'((a-b)/c)-d'
p649
aS'((a/c)*d)-b'
p650
aS'((a/c)+b)/d'
p651
aS'd/((a*b)+c)'
p652
aS'((b*c)+a)*d'
p653
aS'(c/(b*d))-a'
p654
aS'c/((a+b)+d)'
p655
aS'd-((a-b)+c)'
p656
aS'(a-(d/c))*b'
p657
aS'd/(c-(a*b))'
p658
aS'c-(a/(b+d))'
p659
aS'((a+d)*b)-c'
p660
aS'(b/d)-(a-c)'
p661
aS'(d-c)/(a+b)'
p662
aS'(c-(b*d))*a'
p663
aS'a-((c-d)*b)'
p664
aS'(b-(a/c))/d'
p665
aS'(a*c)-(b/d)'
p666
aS'((a+b)-d)/c'
p667
aS'((a-d)*b)+c'
p668
aS'd-((a+b)/c)'
p669
aS'((c/b)-a)*d'
p670
aS'((c*d)+b)/a'
p671
aS'((b/c)*d)-a'
p672
aS'(d-(a-b))/c'
p673
aS'(b*c)+(a/d)'
p674
aS'(c+d)/(a+b)'
p675
aS'((a*d)-b)-c'
p676
aS'b/((a-d)*c)'
p677
aS'c/(d-(a/b))'
p678
aS'a/(c-(b/d))'
p679
aS'(d-(a-c))/b'
p680
aS'd/((a-b)-c)'
p681
aS'((a*d)-b)*c'
p682
aS'((a*b)*d)-c'
p683
aS'd/((b/a)-c)'
p684
aS'(a/(b+c))+d'
p685
aS'(c/d)-(a+b)'
p686
aS'c/((b/d)+a)'
p687
aS'((a*b)+d)*c'
p688
aS'a/(d-(c/b))'
p689
aS'(b*d)+(a/c)'
p690
aS'(d-(b*c))*a'
p691
aS'(c-d)*(a-b)'
p692
aS'((a*b)*c)/d'
p693
aS'((b-a)*c)-d'
p694
aS'((a+c)*b)*d'
p695
aS'(d-(b/c))*a'
p696
aS'((b-a)/d)-c'
p697
aS'((a+b)*d)-c'
p698
aS'(d/(a*b))+c'
p699
aS'((c/d)-b)/a'
p700
aS'((d/c)+a)/b'
p701
aS'(b-c)/(a-d)'
p702
aS'b/(d-(a+c))'
p703
aS'((a+b)+d)*c'
p704
aS'(a-c)-(b/d)'
p705
aS'((b/a)+c)*d'
p706
aS'(c-(b+d))/a'
p707
aS'(c*d)-(a/b)'
p708
aS'c/((d/a)+b)'
p709
aS'a/((d/c)-b)'
p710
aS'(b-(a*d))*c'
p711
aS'(a-b)/(c-d)'
p712
aS'(d-(b-c))*a'
p713
aS'a-(d/(b+c))'
p714
aS'((a+d)/b)+c'
p715
aS'((b-c)*d)-a'
p716
aS'((a/c)/d)-b'
p717
aS'(c/a)+(b+d)'
p718
aS'c/((b+d)*a)'
p719
aS'(b/(c-a))-d'
p720
aS'(b+c)*(a+d)'
p721
aS'((a/d)-b)-c'
p722
aS'((b/c)+a)*d'
p723
aS'(c-b)/(a/d)'
p724
aS'(b/a)/(c+d)'
p725
aS'd-((b/a)-c)'
p726
aS'(b-c)*(a/d)'
p727
aS'((c+d)/a)+b'
p728
aS'd/((a+c)*b)'
p729
aS'(b-(d/a))/c'
p730
aS'b-((a+c)/d)'
p731
aS'b/((c/d)-a)'
p732
aS'b-((a-d)/c)'
p733
aS'(b-c)*(a*d)'
p734
aS'((b*c)+d)/a'
p735
aS'(c*d)-(a*b)'
p736
aS'(b-a)-(d/c)'
p737
aS'(c-a)/(b+d)'
p738
aS'(d/c)+(a/b)'
p739
aS'((b+c)/a)+d'
p740
aS'(a*c)/(b-d)'
p741
aS'(d/c)-(a-b)'
p742
aS'((c/b)+a)*d'
p743
aS'(b/(a+d))+c'
p744
aS'(c/(d-a))-b'
p745
aS'b/(c-(d/a))'
p746
aS'((b-c)/a)-d'
p747
aS'b/(d-(c/a))'
p748
aS'((a-b)*c)*d'
p749
aS'd-((a/b)+c)'
p750
aS'c/((b*d)-a)'
p751
aS'(c-b)/(a+d)'
p752
aS'(b+c)/(d-a)'
p753
aS'((a*d)-c)*b'
p754
aS'((b-a)*c)*d'
p755
aS'b-((a/d)+c)'
p756
aS'(a+b)/(d-c)'
p757
aS'((a-c)*b)+d'
p758
aS'((a/c)+d)/b'
p759
aS'c-((a*d)+b)'
p760
aS'(c/(a-b))-d'
p761
aS'((a*d)+b)+c'
p762
aS'((a/b)+d)/c'
p763
aS'(b/d)+(a/c)'
p764
aS'a-(c/(b-d))'
p765
aS'(d/b)+(a-c)'
p766
aS'((b*c)/d)-a'
p767
aS'((a-c)/d)+b'
p768
aS'b/(c-(a+d))'
p769
aS'b-(a/(c-d))'
p770
aS'((b+c)+d)*a'
p771
aS'((a+c)/b)+d'
p772
aS'a/((b*c)-d)'
p773
aS'a-((c+d)/b)'
p774
aS'((d/a)+b)*c'
p775
aS'(c/b)-(a/d)'
p776
aS'b/(d-(a*c))'
p777
aS'(d/a)-(b*c)'
p778
aS'((a/b)-d)*c'
p779
aS'((a*b)-c)-d'
p780
aS'(a*c)-(d/b)'
p781
aS'(a-d)/(b-c)'
p782
aS'(a-(b/d))*c'
p783
aS'((d/b)+c)/a'
p784
aS'(b-(d/a))*c'
p785
aS'c/((a/d)+b)'
p786
aS'd/((a+b)/c)'
p787
aS'((a+b)-c)*d'
p788
aS'((a*b)-c)*d'
p789
aS'(c-d)/(a/b)'
p790
aS'(b/a)/(c-d)'
p791
aS'((a*b)+c)+d'
p792
aS'((d-a)*c)-b'
p793
aS'a-((b/c)/d)'
p794
aS'((b+d)/c)-a'
p795
aS'(c/a)/(d-b)'
p796
aS'(b*d)+(a-c)'
p797
aS'((d/b)-a)/c'
p798
aS'b/((a-c)-d)'
p799
aS'(d/c)+(a+b)'
p800
aS'd-((b-c)*a)'
p801
aS'd/((c/b)+a)'
p802
aS'(c-a)/(b/d)'
p803
aS'a-((b+c)*d)'
p804
aS'((c+d)/b)-a'
p805
aS'(d/(b*c))+a'
p806
aS'((a-c)/b)-d'
p807
aS'd-((a*b)-c)'
p808
aS'(c-d)/(a+b)'
p809
aS'(d-(a-b))*c'
p810
aS'(d-(a+c))*b'
p811
aS'(c*d)+(a*b)'
p812
aS'(b*c)/(d-a)'
p813
aS'((a/b)/c)+d'
p814
aS'((a+c)*b)-d'
p815
aS'(b/(a+c))+d'
p816
aS'd/((b-c)*a)'
p817
aS'd/((a/b)/c)'
p818
aS'(b-a)-(c/d)'
p819
aS'(c/d)+(a-b)'
p820
aS'c/((a+d)/b)'
p821
aS'c/(d-(a*b))'
p822
aS'((b/c)+a)/d'
p823
aS'(b*c)+(a+d)'
p824
aS'(c+d)*(a-b)'
p825
aS'(c/(a+d))+b'
p826
aS'b/((a*d)+c)'
p827
aS'(a/(b-d))+c'
p828
aS'(d/c)-(a+b)'
p829
aS'b-((a-c)/d)'
p830
aS'(b+d)/(a+c)'
p831
aS'c-((a-b)*d)'
p832
aS'c-(b/(a+d))'
p833
aS'(a+b)-(c*d)'
p834
aS'((a-b)+d)/c'
p835
aS'((a*b)*c)+d'
p836
aS'((b-c)*a)+d'
p837
aS'a-((b-d)/c)'
p838
aS'((d-b)/a)-c'
p839
aS'(d-(b-c))/a'
p840
aS'((b+d)*a)+c'
p841
aS'(b*d)+(a+c)'
p842
aS'(a*d)/(c-b)'
p843
aS'((a+c)+d)/b'
p844
aS'((a/d)+c)*b'
p845
aS'(b/(a*c))+d'
p846
aS'(b/d)+(a*c)'
p847
aS'(b-(c/d))/a'
p848
aS'((b*c)+d)*a'
p849
aS'b/(d-(a/c))'
p850
aS'((b/a)+d)*c'
p851
aS'((c/a)+b)/d'
p852
aS'a/(d-(b*c))'
p853
aS'((c-d)*a)+b'
p854
aS'((a+d)/c)-b'
p855
aS'((d/c)+b)*a'
p856
aS'((c*d)-a)/b'
p857
aS'((b+d)/c)+a'
p858
aS'd-((a*c)+b)'
p859
aS'(d-(a+b))/c'
p860
aS'((b+c)-d)*a'
p861
aS'b/((a-c)+d)'
p862
aS'((a/d)+b)-c'
p863
aS'(b/(a-c))-d'
p864
aS'a/((b-c)+d)'
p865
aS'((a+c)*d)-b'
p866
aS'(d-b)*(a-c)'
p867
aS'b-(c/(a*d))'
p868
aS'(c/(a+b))+d'
p869
aS'(a/(b-d))-c'
p870
aS'a-(d/(b-c))'
p871
aS'((c-d)*b)-a'
p872
aS'(c/(a*d))+b'
p873
aS'a-((b-d)*c)'
p874
aS'b-((c+d)/a)'
p875
aS'((a*b)-d)/c'
p876
aS'd-((b*c)+a)'
p877
aS'((b/c)+d)/a'
p878
aS'c/(b-(d/a))'
p879
aS'd/((a*c)-b)'
p880
aS'd/((b+c)*a)'
p881
aS'((a/b)*c)*d'
p882
aS'd/((c-b)*a)'
p883
aS'd/(b-(c/a))'
p884
aS'((b-c)-d)/a'
p885
aS'(a-b)/(c+d)'
p886
aS'((d/b)-a)*c'
p887
aS'a-((b+d)*c)'
p888
aS'((a*c)-b)-d'
p889
aS'((a-b)+c)+d'
p890
aS'c-((a+d)*b)'
p891
aS'(d/a)-(b+c)'
p892
aS'((a*c)/d)+b'
p893
aS'((a/c)-b)*d'
p894
aS'(b-(c*d))/a'
p895
aS'(d/b)+(a/c)'
p896
aS'(d-(a*b))/c'
p897
aS'((a+c)/d)-b'
p898
aS'(c-(a/d))*b'
p899
aS'c-(b/(a*d))'
p900
aS'd-(a/(b+c))'
p901
aS'(c-b)*(a/d)'
p902
aS'd-((b+c)*a)'
p903
aS'(c/(a/b))+d'
p904
aS'(b/c)-(a-d)'
p905
aS'(b-c)/(a+d)'
p906
aS'd-((a+b)+c)'
p907
aS'((b-a)*d)-c'
p908
aS'd/(c-(a-b))'
p909
aS'(b-c)/(a*d)'
p910
aS'd-((b+c)/a)'
p911
aS'a-(b/(c+d))'
p912
aS'(c-(a-b))/d'
p913
aS'd-((a-c)*b)'
p914
aS'(a/d)/(b-c)'
p915
aS'b/((d/a)-c)'
p916
aS'((a+b)*c)-d'
p917
aS'((a-c)*b)/d'
p918
aS'((d/c)-b)/a'
p919
aS'(a*d)-(b/c)'
p920
aS'(b-(a/d))/c'
p921
aS'b-((a+c)*d)'
p922
aS'd-(c/(a+b))'
p923
aS'(c/d)+(a*b)'
p924
aS'((c/b)+d)/a'
p925
aS'((c/a)+d)/b'
p926
aS'(b+c)*(a-d)'
p927
aS'c/(d-(b/a))'
p928
aS'a/(d-(b/c))'
p929
aS'((c-d)/a)+b'
p930
aS'((a/b)*d)+c'
p931
aS'((a/b)-c)-d'
p932
aS'(a*d)-(c/b)'
p933
aS'b-((c+d)*a)'
p934
aS'((b/a)-c)*d'
p935
aS'(d-(b*c))/a'
p936
aS'((a*b)/d)-c'
p937
aS'(a+c)/(b-d)'
p938
aS'(a-(b/c))*d'
p939
aS'((a+b)/d)+c'
p940
aS'b/((a+c)*d)'
p941
aS'((b*d)+a)*c'
p942
aS'b/(c-(a/d))'
p943
aS'((a-d)/b)+c'
p944
aS'd/((b/c)-a)'
p945
aS'(c+d)*(b-a)'
p946
aS'(c/(b-a))-d'
p947
aS'(c-(b+d))*a'
p948
aS'(c/(b+d))+a'
p949
aS'(c*d)-(a+b)'
p950
aS'd/(b-(a+c))'
p951
aS'((b-d)*c)-a'
p952
aS'(b+c)/(a+d)'
p953
aS'(a*c)/(b+d)'
p954
aS'd/(b-(a/c))'
p955
aS'(c-(b/a))*d'
p956
aS'((b/c)-d)*a'
p957
aS'c/((a-b)+d)'
p958
aS'd-((a-b)-c)'
p959
aS'((b*c)*d)-a'
p960
aS'(b*c)-(a/d)'
p961
aS'(c/d)-(a/b)'
p962
aS'((a-c)-d)/b'
p963
aS'a-(c/(b*d))'
p964
aS'((d/c)+a)*b'
p965
aS'd/((a*b)/c)'
p966
aS'(a/b)-(c/d)'
p967
aS'(c/b)+(a+d)'
p968
aS'(a/c)/(d-b)'
p969
aS'(d/a)-(c/b)'
p970
aS'd-(c/(a*b))'
p971
aS'((b/d)-a)/c'
p972
aS'(d-(a/c))*b'
p973
aS'(b/c)-(a+d)'
p974
aS'((a*d)-b)/c'
p975
aS'c-((a-b)+d)'
p976
aS'(c-(d/b))*a'
p977
aS'(d-c)/(a/b)'
p978
aS'((a-b)/c)/d'
p979
aS'((b*c)-d)*a'
p980
aS'((d/a)+b)/c'
p981
aS'd/(b-(a*c))'
p982
aS'((a-b)-c)-d'
p983
aS'(c/(b-d))-a'
p984
aS'b-((a-c)*d)'
p985
aS'(b*c)-(d/a)'
p986
aS'((b/c)-a)*d'
p987
aS'((d/c)+b)/a'
p988
aS'd/((a+c)/b)'
p989
aS'((a/b)*c)-d'
p990
aS'd-((a/b)/c)'
p991
aS'(d-(a+b))*c'
p992
aS'(b/(a*d))+c'
p993
aS'c/((d/b)+a)'
p994
aS'((d/b)-c)*a'
p995
aS'(b+d)/(a*c)'
p996
aS'd/(a-(b*c))'
p997
aS'(c/b)+(a*d)'
p998
aS'c/((b/a)-d)'
p999
aS'(c-a)-(d/b)'
p1000
aS'(b/c)+(a-d)'
p1001
aS'a-(b/(c-d))'
p1002
aS'((a*b)/c)/d'
p1003
aS'((b+d)/a)-c'
p1004
aS'a-((b-c)/d)'
p1005
aS'((a*c)+d)/b'
p1006
aS'(d-(a/c))/b'
p1007
aS'a/((b/c)+d)'
p1008
aS'((c/b)+a)/d'
p1009
aS'((c/d)-a)/b'
p1010
aS'((b/d)-a)*c'
p1011
aS'(d-(b+c))/a'
p1012
aS'(d/c)+(b/a)'
p1013
aS'((a*b)/c)-d'
p1014
aS'((b/c)/d)-a'
p1015
aS'((a-b)*d)-c'
p1016
aS'((a+c)-d)/b'
p1017
aS'((d-a)/b)-c'
p1018
aS'(d-(a/b))*c'
p1019
aS'(d/a)+(b/c)'
p1020
aS'(c/(a*b))+d'
p1021
aS'd/((a+b)+c)'
p1022
aS'(a/d)-(b*c)'
p1023
aS'((a-b)/d)-c'
p1024
aS'((c/a)-d)*b'
p1025
aS'(c/(a-d))-b'
p1026
aS'((a/b)/d)+c'
p1027
aS'b-((a*c)+d)'
p1028
aS'(a/b)-(d/c)'
p1029
aS'(d/b)-(c/a)'
p1030
aS'((a/c)-b)/d'
p1031
aS'c-((a/d)-b)'
p1032
aS'a/(c-(b*d))'
p1033
aS'(b-(c/a))*d'
p1034
aS'c-((a/b)/d)'
p1035
aS'(a+d)-(b*c)'
p1036
aS'((a-c)*b)*d'
p1037
aS'((a+d)/c)+b'
p1038
aS'a/((b+c)+d)'
p1039
aS'd-(b/(a-c))'
p1040
aS'd-((c/a)+b)'
p1041
aS'd-((b-c)/a)'
p1042
aS'((a+b)-c)+d'
p1043
aS'((a*b)*d)+c'
p1044
aS'(d/b)-(a*c)'
p1045
aS'(b*c)+(a*d)'
p1046
aS'(a/b)/(d-c)'
p1047
aS'(c/(b+d))-a'
p1048
aS'b/((d/c)-a)'
p1049
aS'((a*b)+c)*d'
p1050
aS'd/((c-a)*b)'
p1051
aS'(b/c)-(a/d)'
p1052
aS'd-((b/c)+a)'
p1053
aS'(c/a)-(b-d)'
p1054
aS'((b/d)+a)*c'
p1055
aS'(a-(c/d))*b'
p1056
aS'((a-b)+c)/d'
p1057
aS'((b*d)+a)/c'
p1058
aS'((d/b)+a)/c'
p1059
aS'((c-b)/d)-a'
p1060
aS'((a/b)+c)*d'
p1061
aS'a/((c/b)-d)'
p1062
aS'((c-d)*a)-b'
p1063
aS'a/(b-(d/c))'
p1064
aS'((a/b)+c)-d'
p1065
aS'((a*d)-b)+c'
p1066
aS'((b*c)*d)+a'
p1067
aS'((b/a)+c)-d'
p1068
aS'((a+c)/b)*d'
p1069
aS'((b/a)+c)+d'
p1070
aS'(b/d)+(a+c)'
p1071
aS'(a/(d-b))-c'
p1072
aS'((c-b)*a)-d'
p1073
aS'd/(c-(b/a))'
p1074
aS'(d-(a+c))/b'
p1075
aS'c-((b/a)+d)'
p1076
aS'((a/d)+b)+c'
p1077
aS'c/((a/b)+d)'
p1078
aS'((a+b)/c)*d'
p1079
aS'c/(d-(a+b))'
p1080
aS'((a/c)/d)+b'
p1081
aS'((c/a)-d)/b'
p1082
aS'(a-d)-(c/b)'
p1083
aS'((a/d)-b)+c'
p1084
aS'b/((a+c)+d)'
p1085
aS'((c/d)-b)*a'
p1086
aS'(b+c)/(a/d)'
p1087
aS'((a*c)+d)*b'
p1088
aS'(b/c)+(a/d)'
p1089
aS'(b+d)/(c-a)'
p1090
aS'(c/a)-(b+d)'
p1091
aS'((a-d)/b)/c'
p1092
aS'((c/b)+d)*a'
p1093
aS'(c-d)/(a-b)'
p1094
aS'(d/(a+b))-c'
p1095
aS'(c-a)*(b+d)'
p1096
aS'(b-d)-(c/a)'
p1097
aS'((a-b)+d)*c'
p1098
aS'c-((a/d)+b)'
p1099
aS'((a+d)*b)*c'
p1100
aS'((a*d)+c)/b'
p1101
aS'(b/(d-a))-c'
p1102
aS'c/((a+d)*b)'
p1103
aS'(b-d)/(a+c)'
p1104
aS'd-((b/a)+c)'
p1105
aS'(d-(b+c))*a'
p1106
aS'd-((a*b)/c)'
p1107
aS'(a-(c/b))/d'
p1108
aS'((b+c)*a)-d'
p1109
aS'(a/d)-(c/b)'
p1110
aS'((a*b)+d)/c'
p1111
aS'(b/a)-(c/d)'
p1112
aS'(b*d)-(a+c)'
p1113
aS'((b-a)/c)-d'
p1114
aS'(a-d)/(b+c)'
p1115
aS'(b-d)*(a*c)'
p1116
aS'((a-c)+d)/b'
p1117
aS'b/((a+d)*c)'
p1118
aS'(a-c)-(d/b)'
p1119
aS'(b/c)+(a*d)'
p1120
aS'b/((a*c)*d)'
p1121
aS'((d/a)-b)/c'
p1122
aS'(c/d)+(a/b)'
p1123
aS'(b-d)/(a/c)'
p1124
aS'((a-d)/c)-b'
p1125
aS'(b+c)/(a-d)'
p1126
aS'((c+d)/a)-b'
p1127
aS'a/((b/d)+c)'
p1128
aS'((b-c)*a)-d'
p1129
aS'(b*c)+(a-d)'
p1130
aS'a/((c/d)+b)'
p1131
aS'(a+d)/(b-c)'
p1132
aS'((c*d)+a)/b'
p1133
aS'((a+b)+c)-d'
p1134
aS'(d/(a*c))+b'
p1135
aS'(d/(b-c))+a'
p1136
aS'((a-b)+c)-d'
p1137
aS'a/(c-(b+d))'
p1138
aS'((b+c)*d)+a'
p1139
aS'((a+c)/b)-d'
p1140
aS'c-((a*b)*d)'
p1141
aS'(c*d)-(b/a)'
p1142
aS'(a/d)/(b+c)'
p1143
aS'd-((a+b)*c)'
p1144
aS'c/((a/b)-d)'
p1145
aS'(a+d)-(c/b)'
p1146
aS'(a/(c-d))-b'
p1147
aS'((c/a)-b)/d'
p1148
aS'c-((a*b)/d)'
p1149
aS'((b+c)/d)-a'
p1150
aS'b/((a-c)*d)'
p1151
aS'(b-(a+d))*c'
p1152
aS'(a-c)/(b+d)'
p1153
aS'c-(b/(a-d))'
p1154
aS'(b+d)*(a-c)'
p1155
aS'a-(c/(b+d))'
p1156
aS'b/((a*d)-c)'
p1157
aS'((a/c)-d)*b'
p1158
aS'((a/d)+b)*c'
p1159
aS'b/((c/d)+a)'
p1160
aS'((a*d)+b)-c'
p1161
aS'c-(d/(a+b))'
p1162
aS'c/((a-b)*d)'
p1163
aS'((b-d)*a)-c'
p1164
aS'(b+d)/(a-c)'
p1165
aS'(c-(b/d))*a'
p1166
aS'((a-c)/d)-b'
p1167
aS'(c/a)+(b*d)'
p1168
aS'(d-(b/a))/c'
p1169
aS'(c/d)-(a*b)'
p1170
aS'((c-d)/b)-a'
p1171
atp1172
Rp1173
.